target datalayout = "e-m:e-p270:32:32-p271:32:32-p272:64:64-i64:64-i128:128-f80:128-n8:16:32:64-S128"
target triple = "x86_64-pc-linux-gnu"

%struct._exr_decode_pipeline = type { i64, ptr, i16, i16, i32, ptr, %struct.exr_chunk_info_t, i32, i32, i64, ptr, ptr, i64, ptr, i64, ptr, i64, ptr, i64, ptr, i64, ptr, i64, ptr, ptr, ptr, ptr, ptr, ptr, [5 x %struct.exr_coding_channel_info_t] }
%struct.exr_chunk_info_t = type { i32, i32, i32, i32, i32, i8, i8, i8, i8, i64, i64, i64, i64, i64 }
%struct.exr_coding_channel_info_t = type { ptr, i32, i32, i32, i32, i8, i8, i16, i16, i16, i32, i32, %union.anon }
%union.anon = type { ptr }
%struct._priv_exr_context_t = type { i8, i8, i8, i8, i8, i8, i8, i8, %struct.exr_attr_string_t, %struct.exr_attr_string_t, ptr, ptr, ptr, ptr, ptr, ptr, ptr, ptr, i32, i32, i32, i32, i32, float, ptr, ptr, ptr, i64, ptr, ptr, i64, i32, i32, i32, i32, %struct._priv_exr_part_t, ptr, ptr, %struct.exr_attribute_list, %union.pthread_mutex_t, i8, i8, [2 x i8], i32 }
%struct.exr_attr_string_t = type { i32, i32, ptr }
%struct._priv_exr_part_t = type { i32, i32, %struct.exr_attribute_list, ptr, ptr, ptr, ptr, ptr, ptr, ptr, ptr, ptr, ptr, ptr, ptr, ptr, ptr, %struct.exr_attr_box2i_t, %struct.exr_attr_box2i_t, i32, i32, i32, float, i32, i32, ptr, ptr, ptr, ptr, i64, i16, i16, i32, i64, i64 }
%struct.exr_attr_box2i_t = type { %struct.exr_attr_v2i_t, %struct.exr_attr_v2i_t }
%struct.exr_attr_v2i_t = type { i32, i32 }
%struct.exr_attribute_list = type { i32, i32, ptr, ptr }
%union.pthread_mutex_t = type { %struct.__pthread_mutex_s }
%struct.__pthread_mutex_s = type { i32, i32, i32, i32, i32, i16, i16, %struct.__pthread_internal_list }
%struct.__pthread_internal_list = type { ptr, ptr }

@.str.1 = private unnamed_addr constant [29 x i8] c"Part index (%d) out of range\00", align 1

; Function Attrs: nounwind uwtable
define internal i32 @default_read_chunk(ptr noundef %0) #0 {
  %2 = alloca i32, align 4
  %3 = alloca ptr, align 8
  %4 = alloca i32, align 4
  %5 = alloca ptr, align 8
  %6 = alloca ptr, align 8
  %7 = alloca i32, align 4
  store ptr %0, ptr %3, align 8, !tbaa !11
  call void @llvm.lifetime.start.p0(i64 4, ptr %4) #6
  call void @llvm.lifetime.start.p0(i64 8, ptr %5) #6
  %8 = load ptr, ptr %3, align 8, !tbaa !11
  %9 = getelementptr inbounds nuw %struct._exr_decode_pipeline, ptr %8, i32 0, i32 5
  %10 = load ptr, ptr %9, align 8, !tbaa !47
  store ptr %10, ptr %5, align 8, !tbaa !3
  call void @llvm.lifetime.start.p0(i64 8, ptr %6) #6
  %11 = load ptr, ptr %5, align 8, !tbaa !3
  %12 = icmp ne ptr %11, null
  br i1 %12, label %14, label %13

13:                                               ; preds = %1
  store i32 2, ptr %2, align 4
  store i32 1, ptr %7, align 4
  br label %188

14:                                               ; preds = %1
  %15 = load ptr, ptr %5, align 8, !tbaa !3
  %16 = getelementptr inbounds nuw %struct._priv_exr_context_t, ptr %15, i32 0, i32 0
  %17 = load i8, ptr %16, align 8, !tbaa !50
  %18 = zext i8 %17 to i32
  %19 = icmp ne i32 %18, 0
  br i1 %19, label %20, label %26

20:                                               ; preds = %14
  %21 = load ptr, ptr %5, align 8, !tbaa !3
  %22 = getelementptr inbounds nuw %struct._priv_exr_context_t, ptr %21, i32 0, i32 12
  %23 = load ptr, ptr %22, align 8, !tbaa !13
  %24 = load ptr, ptr %5, align 8, !tbaa !3
  %25 = call i32 %23(ptr noundef %24, i32 noundef 7)
  store i32 %25, ptr %2, align 4
  store i32 1, ptr %7, align 4
  br label %188

26:                                               ; preds = %14
  %27 = load ptr, ptr %3, align 8, !tbaa !11
  %28 = getelementptr inbounds nuw %struct._exr_decode_pipeline, ptr %27, i32 0, i32 4
  %29 = load i32, ptr %28, align 4, !tbaa !44
  %30 = icmp slt i32 %29, 0
  br i1 %30, label %39, label %31

31:                                               ; preds = %26
  %32 = load ptr, ptr %3, align 8, !tbaa !11
  %33 = getelementptr inbounds nuw %struct._exr_decode_pipeline, ptr %32, i32 0, i32 4
  %34 = load i32, ptr %33, align 4, !tbaa !44
  %35 = load ptr, ptr %5, align 8, !tbaa !3
  %36 = getelementptr inbounds nuw %struct._priv_exr_context_t, ptr %35, i32 0, i32 34
  %37 = load i32, ptr %36, align 4, !tbaa !28
  %38 = icmp sge i32 %34, %37
  br i1 %38, label %39, label %48

39:                                               ; preds = %31, %26
  %40 = load ptr, ptr %5, align 8, !tbaa !3
  %41 = getelementptr inbounds nuw %struct._priv_exr_context_t, ptr %40, i32 0, i32 14
  %42 = load ptr, ptr %41, align 8, !tbaa !38
  %43 = load ptr, ptr %5, align 8, !tbaa !3
  %44 = load ptr, ptr %3, align 8, !tbaa !11
  %45 = getelementptr inbounds nuw %struct._exr_decode_pipeline, ptr %44, i32 0, i32 4
  %46 = load i32, ptr %45, align 4, !tbaa !44
  %47 = call i32 (ptr, i32, ptr, ...) %42(ptr noundef %43, i32 noundef 4, ptr noundef @.str.1, i32 noundef %46)
  store i32 %47, ptr %2, align 4
  store i32 1, ptr %7, align 4
  br label %188

48:                                               ; preds = %31
  %49 = load ptr, ptr %5, align 8, !tbaa !3
  %50 = getelementptr inbounds nuw %struct._priv_exr_context_t, ptr %49, i32 0, i32 37
  %51 = load ptr, ptr %50, align 8, !tbaa !29
  %52 = load ptr, ptr %3, align 8, !tbaa !11
  %53 = getelementptr inbounds nuw %struct._exr_decode_pipeline, ptr %52, i32 0, i32 4
  %54 = load i32, ptr %53, align 4, !tbaa !44
  %55 = sext i32 %54 to i64
  %56 = getelementptr inbounds ptr, ptr %51, i64 %55
  %57 = load ptr, ptr %56, align 8, !tbaa !30
  store ptr %57, ptr %6, align 8, !tbaa !30
  %58 = load ptr, ptr %3, align 8, !tbaa !11
  %59 = getelementptr inbounds nuw %struct._exr_decode_pipeline, ptr %58, i32 0, i32 13
  %60 = load ptr, ptr %59, align 8, !tbaa !78
  %61 = load ptr, ptr %3, align 8, !tbaa !11
  %62 = getelementptr inbounds nuw %struct._exr_decode_pipeline, ptr %61, i32 0, i32 11
  %63 = load ptr, ptr %62, align 8, !tbaa !79
  %64 = icmp eq ptr %60, %63
  br i1 %64, label %65, label %73

65:                                               ; preds = %48
  %66 = load ptr, ptr %3, align 8, !tbaa !11
  %67 = getelementptr inbounds nuw %struct._exr_decode_pipeline, ptr %66, i32 0, i32 14
  %68 = load i64, ptr %67, align 8, !tbaa !80
  %69 = icmp eq i64 %68, 0
  br i1 %69, label %70, label %73

70:                                               ; preds = %65
  %71 = load ptr, ptr %3, align 8, !tbaa !11
  %72 = getelementptr inbounds nuw %struct._exr_decode_pipeline, ptr %71, i32 0, i32 13
  store ptr null, ptr %72, align 8, !tbaa !78
  br label %73

73:                                               ; preds = %70, %65, %48
  %74 = load ptr, ptr %6, align 8, !tbaa !30
  %75 = getelementptr inbounds nuw %struct._priv_exr_part_t, ptr %74, i32 0, i32 1
  %76 = load i32, ptr %75, align 4, !tbaa !36
  %77 = icmp eq i32 %76, 2
  br i1 %77, label %83, label %78

78:                                               ; preds = %73
  %79 = load ptr, ptr %6, align 8, !tbaa !30
  %80 = getelementptr inbounds nuw %struct._priv_exr_part_t, ptr %79, i32 0, i32 1
  %81 = load i32, ptr %80, align 4, !tbaa !36
  %82 = icmp eq i32 %81, 3
  br i1 %82, label %83, label %152

83:                                               ; preds = %78, %73
  %84 = load ptr, ptr %3, align 8, !tbaa !11
  %85 = getelementptr inbounds nuw %struct._exr_decode_pipeline, ptr %84, i32 0, i32 6
  %86 = getelementptr inbounds nuw %struct.exr_chunk_info_t, ptr %85, i32 0, i32 13
  %87 = load i64, ptr %86, align 8, !tbaa !81
  %88 = icmp ugt i64 %87, 0
  br i1 %88, label %89, label %152

89:                                               ; preds = %83
  %90 = load ptr, ptr %3, align 8, !tbaa !11
  %91 = load ptr, ptr %3, align 8, !tbaa !11
  %92 = getelementptr inbounds nuw %struct._exr_decode_pipeline, ptr %91, i32 0, i32 15
  %93 = load ptr, ptr %3, align 8, !tbaa !11
  %94 = getelementptr inbounds nuw %struct._exr_decode_pipeline, ptr %93, i32 0, i32 16
  %95 = load ptr, ptr %3, align 8, !tbaa !11
  %96 = getelementptr inbounds nuw %struct._exr_decode_pipeline, ptr %95, i32 0, i32 6
  %97 = getelementptr inbounds nuw %struct.exr_chunk_info_t, ptr %96, i32 0, i32 13
  %98 = load i64, ptr %97, align 8, !tbaa !81
  %99 = call i32 @internal_decode_alloc_buffer(ptr noundef %90, i32 noundef 5, ptr noundef %92, ptr noundef %94, i64 noundef %98)
  store i32 %99, ptr %4, align 4, !tbaa !8
  %100 = load i32, ptr %4, align 4, !tbaa !8
  %101 = icmp ne i32 %100, 0
  br i1 %101, label %102, label %104

102:                                              ; preds = %89
  %103 = load i32, ptr %4, align 4, !tbaa !8
  store i32 %103, ptr %2, align 4
  store i32 1, ptr %7, align 4
  br label %188

104:                                              ; preds = %89
  %105 = load ptr, ptr %3, align 8, !tbaa !11
  %106 = getelementptr inbounds nuw %struct._exr_decode_pipeline, ptr %105, i32 0, i32 3
  %107 = load i16, ptr %106, align 2, !tbaa !82
  %108 = zext i16 %107 to i32
  %109 = and i32 %108, 4
  %110 = icmp ne i32 %109, 0
  br i1 %110, label %111, label %122

111:                                              ; preds = %104
  %112 = load ptr, ptr %5, align 8, !tbaa !3
  %113 = load ptr, ptr %3, align 8, !tbaa !11
  %114 = getelementptr inbounds nuw %struct._exr_decode_pipeline, ptr %113, i32 0, i32 4
  %115 = load i32, ptr %114, align 4, !tbaa !44
  %116 = load ptr, ptr %3, align 8, !tbaa !11
  %117 = getelementptr inbounds nuw %struct._exr_decode_pipeline, ptr %116, i32 0, i32 6
  %118 = load ptr, ptr %3, align 8, !tbaa !11
  %119 = getelementptr inbounds nuw %struct._exr_decode_pipeline, ptr %118, i32 0, i32 15
  %120 = load ptr, ptr %119, align 8, !tbaa !83
  %121 = call i32 @exr_read_deep_chunk(ptr noundef %112, i32 noundef %115, ptr noundef %117, ptr noundef null, ptr noundef %120)
  store i32 %121, ptr %4, align 4, !tbaa !8
  br label %151

122:                                              ; preds = %104
  %123 = load ptr, ptr %3, align 8, !tbaa !11
  %124 = load ptr, ptr %3, align 8, !tbaa !11
  %125 = getelementptr inbounds nuw %struct._exr_decode_pipeline, ptr %124, i32 0, i32 11
  %126 = load ptr, ptr %3, align 8, !tbaa !11
  %127 = getelementptr inbounds nuw %struct._exr_decode_pipeline, ptr %126, i32 0, i32 12
  %128 = load ptr, ptr %3, align 8, !tbaa !11
  %129 = getelementptr inbounds nuw %struct._exr_decode_pipeline, ptr %128, i32 0, i32 6
  %130 = getelementptr inbounds nuw %struct.exr_chunk_info_t, ptr %129, i32 0, i32 10
  %131 = load i64, ptr %130, align 8, !tbaa !84
  %132 = call i32 @internal_decode_alloc_buffer(ptr noundef %123, i32 noundef 0, ptr noundef %125, ptr noundef %127, i64 noundef %131)
  store i32 %132, ptr %4, align 4, !tbaa !8
  %133 = load i32, ptr %4, align 4, !tbaa !8
  %134 = icmp ne i32 %133, 0
  br i1 %134, label %135, label %137

135:                                              ; preds = %122
  %136 = load i32, ptr %4, align 4, !tbaa !8
  store i32 %136, ptr %2, align 4
  store i32 1, ptr %7, align 4
  br label %188

137:                                              ; preds = %122
  %138 = load ptr, ptr %5, align 8, !tbaa !3
  %139 = load ptr, ptr %3, align 8, !tbaa !11
  %140 = getelementptr inbounds nuw %struct._exr_decode_pipeline, ptr %139, i32 0, i32 4
  %141 = load i32, ptr %140, align 4, !tbaa !44
  %142 = load ptr, ptr %3, align 8, !tbaa !11
  %143 = getelementptr inbounds nuw %struct._exr_decode_pipeline, ptr %142, i32 0, i32 6
  %144 = load ptr, ptr %3, align 8, !tbaa !11
  %145 = getelementptr inbounds nuw %struct._exr_decode_pipeline, ptr %144, i32 0, i32 11
  %146 = load ptr, ptr %145, align 8, !tbaa !79
  %147 = load ptr, ptr %3, align 8, !tbaa !11
  %148 = getelementptr inbounds nuw %struct._exr_decode_pipeline, ptr %147, i32 0, i32 15
  %149 = load ptr, ptr %148, align 8, !tbaa !83
  %150 = call i32 @exr_read_deep_chunk(ptr noundef %138, i32 noundef %141, ptr noundef %143, ptr noundef %146, ptr noundef %149)
  store i32 %150, ptr %4, align 4, !tbaa !8
  br label %151

151:                                              ; preds = %137, %111
  br label %186

152:                                              ; preds = %83, %78
  %153 = load ptr, ptr %3, align 8, !tbaa !11
  %154 = getelementptr inbounds nuw %struct._exr_decode_pipeline, ptr %153, i32 0, i32 6
  %155 = getelementptr inbounds nuw %struct.exr_chunk_info_t, ptr %154, i32 0, i32 10
  %156 = load i64, ptr %155, align 8, !tbaa !84
  %157 = icmp ugt i64 %156, 0
  br i1 %157, label %158, label %184

158:                                              ; preds = %152
  %159 = load ptr, ptr %3, align 8, !tbaa !11
  %160 = load ptr, ptr %3, align 8, !tbaa !11
  %161 = getelementptr inbounds nuw %struct._exr_decode_pipeline, ptr %160, i32 0, i32 11
  %162 = load ptr, ptr %3, align 8, !tbaa !11
  %163 = getelementptr inbounds nuw %struct._exr_decode_pipeline, ptr %162, i32 0, i32 12
  %164 = load ptr, ptr %3, align 8, !tbaa !11
  %165 = getelementptr inbounds nuw %struct._exr_decode_pipeline, ptr %164, i32 0, i32 6
  %166 = getelementptr inbounds nuw %struct.exr_chunk_info_t, ptr %165, i32 0, i32 10
  %167 = load i64, ptr %166, align 8, !tbaa !84
  %168 = call i32 @internal_decode_alloc_buffer(ptr noundef %159, i32 noundef 0, ptr noundef %161, ptr noundef %163, i64 noundef %167)
  store i32 %168, ptr %4, align 4, !tbaa !8
  %169 = load i32, ptr %4, align 4, !tbaa !8
  %170 = icmp ne i32 %169, 0
  br i1 %170, label %171, label %173

171:                                              ; preds = %158
  %172 = load i32, ptr %4, align 4, !tbaa !8
  store i32 %172, ptr %2, align 4
  store i32 1, ptr %7, align 4
  br label %188

173:                                              ; preds = %158
  %174 = load ptr, ptr %5, align 8, !tbaa !3
  %175 = load ptr, ptr %3, align 8, !tbaa !11
  %176 = getelementptr inbounds nuw %struct._exr_decode_pipeline, ptr %175, i32 0, i32 4
  %177 = load i32, ptr %176, align 4, !tbaa !44
  %178 = load ptr, ptr %3, align 8, !tbaa !11
  %179 = getelementptr inbounds nuw %struct._exr_decode_pipeline, ptr %178, i32 0, i32 6
  %180 = load ptr, ptr %3, align 8, !tbaa !11
  %181 = getelementptr inbounds nuw %struct._exr_decode_pipeline, ptr %180, i32 0, i32 11
  %182 = load ptr, ptr %181, align 8, !tbaa !79
  %183 = call i32 @exr_read_chunk(ptr noundef %174, i32 noundef %177, ptr noundef %179, ptr noundef %182)
  store i32 %183, ptr %4, align 4, !tbaa !8
  br label %185

184:                                              ; preds = %152
  store i32 0, ptr %4, align 4, !tbaa !8
  br label %185

185:                                              ; preds = %184, %173
  br label %186

186:                                              ; preds = %185, %151
  %187 = load i32, ptr %4, align 4, !tbaa !8
  store i32 %187, ptr %2, align 4
  store i32 1, ptr %7, align 4
  br label %188

188:                                              ; preds = %186, %171, %135, %102, %39, %20, %13
  call void @llvm.lifetime.end.p0(i64 8, ptr %6) #6
  call void @llvm.lifetime.end.p0(i64 8, ptr %5) #6
  call void @llvm.lifetime.end.p0(i64 4, ptr %4) #6
  %189 = load i32, ptr %2, align 4
  ret i32 %189
}