; Function Attrs: nounwind uwtable
define internal i32 @default_read_chunk(ptr noundef %0) #0 {
  %2 = getelementptr inbounds nuw i8, ptr %0, i64 24
  %3 = load ptr, ptr %2, align 8, !tbaa !38
  %.not = icmp eq ptr %3, null
  br i1 %.not, label %78, label %4

4:                                                ; preds = %1
  %5 = load i8, ptr %3, align 8, !tbaa !42
  %.not63 = icmp eq i8 %5, 0
  br i1 %.not63, label %10, label %6

6:                                                ; preds = %4
  %7 = getelementptr inbounds nuw i8, ptr %3, i64 56
  %8 = load ptr, ptr %7, align 8, !tbaa !3
  %9 = tail call i32 %8(ptr noundef nonnull %3, i32 noundef 7) #5
  br label %78

10:                                               ; preds = %4
  %11 = getelementptr inbounds nuw i8, ptr %0, i64 20
  %12 = load i32, ptr %11, align 4, !tbaa !34
  %13 = icmp slt i32 %12, 0
  br i1 %13, label %17, label %14

14:                                               ; preds = %10
  %15 = getelementptr inbounds nuw i8, ptr %3, i64 196
  %16 = load i32, ptr %15, align 4, !tbaa !22
  %.not64 = icmp slt i32 %12, %16
  br i1 %.not64, label %21, label %17

17:                                               ; preds = %14, %10
  %18 = getelementptr inbounds nuw i8, ptr %3, i64 72
  %19 = load ptr, ptr %18, align 8, !tbaa !28
  %20 = tail call i32 (ptr, i32, ptr, ...) %19(ptr noundef nonnull %3, i32 noundef 4, ptr noundef nonnull @.str.1, i32 noundef %12) #5
  br label %78

21:                                               ; preds = %14
  %22 = getelementptr inbounds nuw i8, ptr %3, i64 472
  %23 = load ptr, ptr %22, align 8, !tbaa !23
  %24 = zext nneg i32 %12 to i64
  %25 = getelementptr inbounds nuw ptr, ptr %23, i64 %24
  %26 = load ptr, ptr %25, align 8, !tbaa !24
  %27 = getelementptr inbounds nuw i8, ptr %0, i64 136
  %28 = load ptr, ptr %27, align 8, !tbaa !70
  %29 = getelementptr inbounds nuw i8, ptr %0, i64 120
  %30 = load ptr, ptr %29, align 8, !tbaa !71
  %31 = icmp eq ptr %28, %30
  br i1 %31, label %32, label %37

32:                                               ; preds = %21
  %33 = getelementptr inbounds nuw i8, ptr %0, i64 144
  %34 = load i64, ptr %33, align 8, !tbaa !72
  %35 = icmp eq i64 %34, 0
  br i1 %35, label %36, label %37

36:                                               ; preds = %32
  store ptr null, ptr %27, align 8, !tbaa !70
  br label %37

37:                                               ; preds = %36, %32, %21
  %38 = getelementptr inbounds nuw i8, ptr %26, i64 4
  %39 = load i32, ptr %38, align 4, !tbaa !25
  %40 = and i32 %39, -2
  %switch = icmp eq i32 %40, 2
  br i1 %switch, label %41, label %67

41:                                               ; preds = %37
  %42 = getelementptr inbounds nuw i8, ptr %0, i64 32
  %43 = getelementptr inbounds nuw i8, ptr %0, i64 88
  %44 = load i64, ptr %43, align 8, !tbaa !73
  %.not65 = icmp eq i64 %44, 0
  br i1 %.not65, label %67, label %45

45:                                               ; preds = %41
  %46 = getelementptr inbounds nuw i8, ptr %0, i64 152
  %47 = getelementptr inbounds nuw i8, ptr %0, i64 160
  %48 = tail call i32 @internal_decode_alloc_buffer(ptr noundef nonnull %0, i32 noundef 5, ptr noundef nonnull %46, ptr noundef nonnull %47, i64 noundef %44) #5
  %.not68 = icmp eq i32 %48, 0
  br i1 %.not68, label %49, label %78

49:                                               ; preds = %45
  %50 = getelementptr inbounds nuw i8, ptr %0, i64 18
  %51 = load i16, ptr %50, align 2, !tbaa !74
  %52 = and i16 %51, 4
  %.not69 = icmp eq i16 %52, 0
  br i1 %.not69, label %57, label %53

53:                                               ; preds = %49
  %54 = load i32, ptr %11, align 4, !tbaa !34
  %55 = load ptr, ptr %46, align 8, !tbaa !75
  %56 = tail call i32 @exr_read_deep_chunk(ptr noundef nonnull %3, i32 noundef %54, ptr noundef nonnull %42, ptr noundef null, ptr noundef %55) #5
  br label %78

57:                                               ; preds = %49
  %58 = getelementptr inbounds nuw i8, ptr %0, i64 128
  %59 = getelementptr inbounds nuw i8, ptr %0, i64 64
  %60 = load i64, ptr %59, align 8, !tbaa !76
  %61 = tail call i32 @internal_decode_alloc_buffer(ptr noundef nonnull %0, i32 noundef 0, ptr noundef nonnull %29, ptr noundef nonnull %58, i64 noundef %60) #5
  %.not70 = icmp eq i32 %61, 0
  br i1 %.not70, label %62, label %78

62:                                               ; preds = %57
  %63 = load i32, ptr %11, align 4, !tbaa !34
  %64 = load ptr, ptr %29, align 8, !tbaa !71
  %65 = load ptr, ptr %46, align 8, !tbaa !75
  %66 = tail call i32 @exr_read_deep_chunk(ptr noundef nonnull %3, i32 noundef %63, ptr noundef nonnull %42, ptr noundef %64, ptr noundef %65) #5
  br label %78

67:                                               ; preds = %37, %41
  %68 = getelementptr inbounds nuw i8, ptr %0, i64 32
  %69 = getelementptr inbounds nuw i8, ptr %0, i64 64
  %70 = load i64, ptr %69, align 8, !tbaa !76
  %.not66 = icmp eq i64 %70, 0
  br i1 %.not66, label %78, label %71

71:                                               ; preds = %67
  %72 = getelementptr inbounds nuw i8, ptr %0, i64 128
  %73 = tail call i32 @internal_decode_alloc_buffer(ptr noundef nonnull %0, i32 noundef 0, ptr noundef nonnull %29, ptr noundef nonnull %72, i64 noundef %70) #5
  %.not67 = icmp eq i32 %73, 0
  br i1 %.not67, label %74, label %78

74:                                               ; preds = %71
  %75 = load i32, ptr %11, align 4, !tbaa !34
  %76 = load ptr, ptr %29, align 8, !tbaa !71
  %77 = tail call i32 @exr_read_chunk(ptr noundef nonnull %3, i32 noundef %75, ptr noundef nonnull %68, ptr noundef %76) #5
  br label %78

78:                                               ; preds = %62, %53, %74, %67, %71, %57, %45, %1, %17, %6
  %.0 = phi i32 [ %9, %6 ], [ %20, %17 ], [ 2, %1 ], [ %48, %45 ], [ %61, %57 ], [ %73, %71 ], [ %56, %53 ], [ %66, %62 ], [ %77, %74 ], [ 0, %67 ]
  ret i32 %.0
}